; ModuleID = 'source-C-CXX/10/673.c'
source_filename = "source-C-CXX/10/673.c"
target datalayout = "e-m:e-p270:32:32-p271:32:32-p272:64:64-i64:64-f80:128-n8:16:32:64-S128"
target triple = "x86_64-pc-linux-gnu"

@__const.main.m = private unnamed_addr constant [12 x i32] [i32 31, i32 28, i32 31, i32 30, i32 31, i32 30, i32 31, i32 31, i32 30, i32 31, i32 30, i32 31], align 16
@.str = private unnamed_addr constant [9 x i8] c"%d %d %d\00", align 1
@.str.1 = private unnamed_addr constant [4 x i8] c"%d\0A\00", align 1

; Function Attrs: nofree nounwind sspstrong uwtable
define dso_local i32 @main() local_unnamed_addr #0 {
  %1 = alloca i32, align 4
  %2 = alloca i32, align 4
  %3 = alloca i32, align 4
  %4 = alloca [12 x i32], align 16
  %5 = bitcast i32* %1 to i8*
  call void @llvm.lifetime.start.p0i8(i64 4, i8* nonnull %5) #5
  %6 = bitcast i32* %2 to i8*
  call void @llvm.lifetime.start.p0i8(i64 4, i8* nonnull %6) #5
  %7 = bitcast i32* %3 to i8*
  call void @llvm.lifetime.start.p0i8(i64 4, i8* nonnull %7) #5
  %8 = bitcast [12 x i32]* %4 to i8*
  call void @llvm.lifetime.start.p0i8(i64 48, i8* nonnull %8) #5
  call void @llvm.memcpy.p0i8.p0i8.i64(i8* noundef nonnull align 16 dereferenceable(48) %8, i8* noundef nonnull align 16 dereferenceable(48) bitcast ([12 x i32]* @__const.main.m to i8*), i64 48, i1 false)
  %9 = call i32 (i8*, ...) @__isoc99_scanf(i8* getelementptr inbounds ([9 x i8], [9 x i8]* @.str, i64 0, i64 0), i32* nonnull %1, i32* nonnull %2, i32* nonnull %3)
  %10 = load i32, i32* %1, align 4, !tbaa !5
  %11 = and i32 %10, 3
  %12 = icmp ne i32 %11, 0
  %13 = srem i32 %10, 100
  %14 = icmp eq i32 %13, 0
  %15 = or i1 %12, %14
  br i1 %15, label %16, label %111

16:                                               ; preds = %0
  %17 = srem i32 %10, 400
  %18 = or i32 %13, %17
  %19 = icmp eq i32 %18, 0
  br i1 %19, label %111, label %20

20:                                               ; preds = %16
  %21 = load i32, i32* %2, align 4, !tbaa !5
  %22 = icmp sgt i32 %21, 1
  br i1 %22, label %23, label %223

23:                                               ; preds = %20
  %24 = add nsw i32 %21, -1
  %25 = zext i32 %24 to i64
  %26 = icmp ult i32 %24, 8
  br i1 %26, label %108, label %27

27:                                               ; preds = %23
  %28 = and i64 %25, 4294967288
  %29 = add nsw i64 %28, -8
  %30 = lshr exact i64 %29, 3
  %31 = add nuw nsw i64 %30, 1
  %32 = and i64 %31, 3
  %33 = icmp ult i64 %29, 24
  br i1 %33, label %79, label %34

34:                                               ; preds = %27
  %35 = and i64 %31, 4611686018427387900
  br label %36

36:                                               ; preds = %36, %34
  %37 = phi i64 [ 0, %34 ], [ %76, %36 ]
  %38 = phi <4 x i32> [ zeroinitializer, %34 ], [ %74, %36 ]
  %39 = phi <4 x i32> [ zeroinitializer, %34 ], [ %75, %36 ]
  %40 = phi i64 [ %35, %34 ], [ %77, %36 ]
  %41 = getelementptr inbounds [12 x i32], [12 x i32]* %4, i64 0, i64 %37
  %42 = bitcast i32* %41 to <4 x i32>*
  %43 = load <4 x i32>, <4 x i32>* %42, align 16, !tbaa !5
  %44 = getelementptr inbounds i32, i32* %41, i64 4
  %45 = bitcast i32* %44 to <4 x i32>*
  %46 = load <4 x i32>, <4 x i32>* %45, align 16, !tbaa !5
  %47 = add <4 x i32> %43, %38
  %48 = add <4 x i32> %46, %39
  %49 = or i64 %37, 8
  %50 = getelementptr inbounds [12 x i32], [12 x i32]* %4, i64 0, i64 %49
  %51 = bitcast i32* %50 to <4 x i32>*
  %52 = load <4 x i32>, <4 x i32>* %51, align 16, !tbaa !5
  %53 = getelementptr inbounds i32, i32* %50, i64 4
  %54 = bitcast i32* %53 to <4 x i32>*
  %55 = load <4 x i32>, <4 x i32>* %54, align 16, !tbaa !5
  %56 = add <4 x i32> %52, %47
  %57 = add <4 x i32> %55, %48
  %58 = or i64 %37, 16
  %59 = getelementptr inbounds [12 x i32], [12 x i32]* %4, i64 0, i64 %58
  %60 = bitcast i32* %59 to <4 x i32>*
  %61 = load <4 x i32>, <4 x i32>* %60, align 16, !tbaa !5
  %62 = getelementptr inbounds i32, i32* %59, i64 4
  %63 = bitcast i32* %62 to <4 x i32>*
  %64 = load <4 x i32>, <4 x i32>* %63, align 16, !tbaa !5
  %65 = add <4 x i32> %61, %56
  %66 = add <4 x i32> %64, %57
  %67 = or i64 %37, 24
  %68 = getelementptr inbounds [12 x i32], [12 x i32]* %4, i64 0, i64 %67
  %69 = bitcast i32* %68 to <4 x i32>*
  %70 = load <4 x i32>, <4 x i32>* %69, align 16, !tbaa !5
  %71 = getelementptr inbounds i32, i32* %68, i64 4
  %72 = bitcast i32* %71 to <4 x i32>*
  %73 = load <4 x i32>, <4 x i32>* %72, align 16, !tbaa !5
  %74 = add <4 x i32> %70, %65
  %75 = add <4 x i32> %73, %66
  %76 = add nuw i64 %37, 32
  %77 = add i64 %40, -4
  %78 = icmp eq i64 %77, 0
  br i1 %78, label %79, label %36, !llvm.loop !9

79:                                               ; preds = %36, %27
  %80 = phi <4 x i32> [ undef, %27 ], [ %74, %36 ]
  %81 = phi <4 x i32> [ undef, %27 ], [ %75, %36 ]
  %82 = phi i64 [ 0, %27 ], [ %76, %36 ]
  %83 = phi <4 x i32> [ zeroinitializer, %27 ], [ %74, %36 ]
  %84 = phi <4 x i32> [ zeroinitializer, %27 ], [ %75, %36 ]
  %85 = icmp eq i64 %32, 0
  br i1 %85, label %102, label %86

86:                                               ; preds = %79, %86
  %87 = phi i64 [ %99, %86 ], [ %82, %79 ]
  %88 = phi <4 x i32> [ %97, %86 ], [ %83, %79 ]
  %89 = phi <4 x i32> [ %98, %86 ], [ %84, %79 ]
  %90 = phi i64 [ %100, %86 ], [ %32, %79 ]
  %91 = getelementptr inbounds [12 x i32], [12 x i32]* %4, i64 0, i64 %87
  %92 = bitcast i32* %91 to <4 x i32>*
  %93 = load <4 x i32>, <4 x i32>* %92, align 16, !tbaa !5
  %94 = getelementptr inbounds i32, i32* %91, i64 4
  %95 = bitcast i32* %94 to <4 x i32>*
  %96 = load <4 x i32>, <4 x i32>* %95, align 16, !tbaa !5
  %97 = add <4 x i32> %93, %88
  %98 = add <4 x i32> %96, %89
  %99 = add nuw i64 %87, 8
  %100 = add i64 %90, -1
  %101 = icmp eq i64 %100, 0
  br i1 %101, label %102, label %86, !llvm.loop !12

102:                                              ; preds = %86, %79
  %103 = phi <4 x i32> [ %80, %79 ], [ %97, %86 ]
  %104 = phi <4 x i32> [ %81, %79 ], [ %98, %86 ]
  %105 = add <4 x i32> %104, %103
  %106 = call i32 @llvm.vector.reduce.add.v4i32(<4 x i32> %105)
  %107 = icmp eq i64 %28, %25
  br i1 %107, label %223, label %108

108:                                              ; preds = %23, %102
  %109 = phi i64 [ 0, %23 ], [ %28, %102 ]
  %110 = phi i32 [ 0, %23 ], [ %106, %102 ]
  br label %215

111:                                              ; preds = %0, %16
  %112 = getelementptr inbounds [12 x i32], [12 x i32]* %4, i64 0, i64 1
  store i32 29, i32* %112, align 4, !tbaa !5
  %113 = load i32, i32* %2, align 4, !tbaa !5
  %114 = icmp sgt i32 %113, 1
  br i1 %114, label %115, label %211

115:                                              ; preds = %111
  %116 = add nsw i32 %113, -1
  %117 = zext i32 %116 to i64
  %118 = icmp ult i32 %116, 8
  br i1 %118, label %200, label %119

119:                                              ; preds = %115
  %120 = and i64 %117, 4294967288
  %121 = add nsw i64 %120, -8
  %122 = lshr exact i64 %121, 3
  %123 = add nuw nsw i64 %122, 1
  %124 = and i64 %123, 3
  %125 = icmp ult i64 %121, 24
  br i1 %125, label %171, label %126

126:                                              ; preds = %119
  %127 = and i64 %123, 4611686018427387900
  br label %128

128:                                              ; preds = %128, %126
  %129 = phi i64 [ 0, %126 ], [ %168, %128 ]
  %130 = phi <4 x i32> [ zeroinitializer, %126 ], [ %166, %128 ]
  %131 = phi <4 x i32> [ zeroinitializer, %126 ], [ %167, %128 ]
  %132 = phi i64 [ %127, %126 ], [ %169, %128 ]
  %133 = getelementptr inbounds [12 x i32], [12 x i32]* %4, i64 0, i64 %129
  %134 = bitcast i32* %133 to <4 x i32>*
  %135 = load <4 x i32>, <4 x i32>* %134, align 16, !tbaa !5
  %136 = getelementptr inbounds i32, i32* %133, i64 4
  %137 = bitcast i32* %136 to <4 x i32>*
  %138 = load <4 x i32>, <4 x i32>* %137, align 16, !tbaa !5
  %139 = add <4 x i32> %135, %130
  %140 = add <4 x i32> %138, %131
  %141 = or i64 %129, 8
  %142 = getelementptr inbounds [12 x i32], [12 x i32]* %4, i64 0, i64 %141
  %143 = bitcast i32* %142 to <4 x i32>*
  %144 = load <4 x i32>, <4 x i32>* %143, align 16, !tbaa !5
  %145 = getelementptr inbounds i32, i32* %142, i64 4
  %146 = bitcast i32* %145 to <4 x i32>*
  %147 = load <4 x i32>, <4 x i32>* %146, align 16, !tbaa !5
  %148 = add <4 x i32> %144, %139
  %149 = add <4 x i32> %147, %140
  %150 = or i64 %129, 16
  %151 = getelementptr inbounds [12 x i32], [12 x i32]* %4, i64 0, i64 %150
  %152 = bitcast i32* %151 to <4 x i32>*
  %153 = load <4 x i32>, <4 x i32>* %152, align 16, !tbaa !5
  %154 = getelementptr inbounds i32, i32* %151, i64 4
  %155 = bitcast i32* %154 to <4 x i32>*
  %156 = load <4 x i32>, <4 x i32>* %155, align 16, !tbaa !5
  %157 = add <4 x i32> %153, %148
  %158 = add <4 x i32> %156, %149
  %159 = or i64 %129, 24
  %160 = getelementptr inbounds [12 x i32], [12 x i32]* %4, i64 0, i64 %159
  %161 = bitcast i32* %160 to <4 x i32>*
  %162 = load <4 x i32>, <4 x i32>* %161, align 16, !tbaa !5
  %163 = getelementptr inbounds i32, i32* %160, i64 4
  %164 = bitcast i32* %163 to <4 x i32>*
  %165 = load <4 x i32>, <4 x i32>* %164, align 16, !tbaa !5
  %166 = add <4 x i32> %162, %157
  %167 = add <4 x i32> %165, %158
  %168 = add nuw i64 %129, 32
  %169 = add i64 %132, -4
  %170 = icmp eq i64 %169, 0
  br i1 %170, label %171, label %128, !llvm.loop !14

171:                                              ; preds = %128, %119
  %172 = phi <4 x i32> [ undef, %119 ], [ %166, %128 ]
  %173 = phi <4 x i32> [ undef, %119 ], [ %167, %128 ]
  %174 = phi i64 [ 0, %119 ], [ %168, %128 ]
  %175 = phi <4 x i32> [ zeroinitializer, %119 ], [ %166, %128 ]
  %176 = phi <4 x i32> [ zeroinitializer, %119 ], [ %167, %128 ]
  %177 = icmp eq i64 %124, 0
  br i1 %177, label %194, label %178

178:                                              ; preds = %171, %178
  %179 = phi i64 [ %191, %178 ], [ %174, %171 ]
  %180 = phi <4 x i32> [ %189, %178 ], [ %175, %171 ]
  %181 = phi <4 x i32> [ %190, %178 ], [ %176, %171 ]
  %182 = phi i64 [ %192, %178 ], [ %124, %171 ]
  %183 = getelementptr inbounds [12 x i32], [12 x i32]* %4, i64 0, i64 %179
  %184 = bitcast i32* %183 to <4 x i32>*
  %185 = load <4 x i32>, <4 x i32>* %184, align 16, !tbaa !5
  %186 = getelementptr inbounds i32, i32* %183, i64 4
  %187 = bitcast i32* %186 to <4 x i32>*
  %188 = load <4 x i32>, <4 x i32>* %187, align 16, !tbaa !5
  %189 = add <4 x i32> %185, %180
  %190 = add <4 x i32> %188, %181
  %191 = add nuw i64 %179, 8
  %192 = add i64 %182, -1
  %193 = icmp eq i64 %192, 0
  br i1 %193, label %194, label %178, !llvm.loop !15

194:                                              ; preds = %178, %171
  %195 = phi <4 x i32> [ %172, %171 ], [ %189, %178 ]
  %196 = phi <4 x i32> [ %173, %171 ], [ %190, %178 ]
  %197 = add <4 x i32> %196, %195
  %198 = call i32 @llvm.vector.reduce.add.v4i32(<4 x i32> %197)
  %199 = icmp eq i64 %120, %117
  br i1 %199, label %211, label %200

200:                                              ; preds = %115, %194
  %201 = phi i64 [ 0, %115 ], [ %120, %194 ]
  %202 = phi i32 [ 0, %115 ], [ %198, %194 ]
  br label %203

203:                                              ; preds = %200, %203
  %204 = phi i64 [ %209, %203 ], [ %201, %200 ]
  %205 = phi i32 [ %208, %203 ], [ %202, %200 ]
  %206 = getelementptr inbounds [12 x i32], [12 x i32]* %4, i64 0, i64 %204
  %207 = load i32, i32* %206, align 4, !tbaa !5
  %208 = add nsw i32 %207, %205
  %209 = add nuw nsw i64 %204, 1
  %210 = icmp eq i64 %209, %117
  br i1 %210, label %211, label %203, !llvm.loop !16

211:                                              ; preds = %203, %194, %111
  %212 = phi i32 [ 0, %111 ], [ %198, %194 ], [ %208, %203 ]
  %213 = load i32, i32* %3, align 4, !tbaa !5
  %214 = add nsw i32 %213, %212
  br label %227

215:                                              ; preds = %108, %215
  %216 = phi i64 [ %221, %215 ], [ %109, %108 ]
  %217 = phi i32 [ %220, %215 ], [ %110, %108 ]
  %218 = getelementptr inbounds [12 x i32], [12 x i32]* %4, i64 0, i64 %216
  %219 = load i32, i32* %218, align 4, !tbaa !5
  %220 = add nsw i32 %219, %217
  %221 = add nuw nsw i64 %216, 1
  %222 = icmp eq i64 %221, %25
  br i1 %222, label %223, label %215, !llvm.loop !18

223:                                              ; preds = %215, %102, %20
  %224 = phi i32 [ 0, %20 ], [ %106, %102 ], [ %220, %215 ]
  %225 = load i32, i32* %3, align 4, !tbaa !5
  %226 = add nsw i32 %225, %224
  br label %227

227:                                              ; preds = %223, %211
  %228 = phi i32 [ %214, %211 ], [ %226, %223 ]
  %229 = call i32 (i8*, ...) @printf(i8* nonnull dereferenceable(1) getelementptr inbounds ([4 x i8], [4 x i8]* @.str.1, i64 0, i64 0), i32 %228)
  call void @llvm.lifetime.end.p0i8(i64 48, i8* nonnull %8) #5
  call void @llvm.lifetime.end.p0i8(i64 4, i8* nonnull %7) #5
  call void @llvm.lifetime.end.p0i8(i64 4, i8* nonnull %6) #5
  call void @llvm.lifetime.end.p0i8(i64 4, i8* nonnull %5) #5
  ret i32 0
}

; Function Attrs: argmemonly mustprogress nofree nosync nounwind willreturn
declare void @llvm.lifetime.start.p0i8(i64 immarg, i8* nocapture) #1

; Function Attrs: argmemonly mustprogress nofree nounwind willreturn
declare void @llvm.memcpy.p0i8.p0i8.i64(i8* noalias nocapture writeonly, i8* noalias nocapture readonly, i64, i1 immarg) #2

; Function Attrs: nofree nounwind
declare noundef i32 @__isoc99_scanf(i8* nocapture noundef readonly, ...) local_unnamed_addr #3

; Function Attrs: nofree nounwind
declare noundef i32 @printf(i8* nocapture noundef readonly, ...) local_unnamed_addr #3

; Function Attrs: argmemonly mustprogress nofree nosync nounwind willreturn
declare void @llvm.lifetime.end.p0i8(i64 immarg, i8* nocapture) #1

; Function Attrs: nofree nosync nounwind readnone willreturn
declare i32 @llvm.vector.reduce.add.v4i32(<4 x i32>) #4


!llvm.module.flags = !{!0, !1, !2, !3}
!llvm.ident = !{!4}

!0 = !{i32 1, !"wchar_size", i32 4}
!1 = !{i32 7, !"PIC Level", i32 2}
!2 = !{i32 7, !"PIE Level", i32 2}
!3 = !{i32 7, !"uwtable", i32 1}
!4 = !{!"clang version 13.0.0"}
!5 = !{!6, !6, i64 0}
!6 = !{!"int", !7, i64 0}
!7 = !{!"omnipotent char", !8, i64 0}
!8 = !{!"Simple C/C++ TBAA"}
!9 = distinct !{!9, !10, !11}
!10 = !{!"llvm.loop.mustprogress"}
!11 = !{!"llvm.loop.isvectorized", i32 1}
!12 = distinct !{!12, !13}
!13 = !{!"llvm.loop.unroll.disable"}
!14 = distinct !{!14, !10, !11}
!15 = distinct !{!15, !13}
!16 = distinct !{!16, !10, !17, !11}
!17 = !{!"llvm.loop.unroll.runtime.disable"}
!18 = distinct !{!18, !10, !17, !11}
